target datalayout = "e-m:e-p270:32:32-p271:32:32-p272:64:64-i64:64-i128:128-f80:128-n8:16:32:64-S128"
target triple = "x86_64-pc-linux-gnu"

%struct.Ivy_Man_t_ = type { ptr, ptr, ptr, ptr, ptr, %struct.Ivy_Obj_t_, [8 x i32], i32, i32, ptr, i32, i32, i32, i32, ptr, i32, ptr, ptr, ptr, i32, ptr, ptr, ptr, i64, i64 }
%struct.Ivy_Obj_t_ = type { i32, i32, i32, i32, ptr, ptr, ptr, ptr, ptr, ptr, ptr, ptr }

; Function Attrs: inlinehint nounwind uwtable
define internal ptr @Ivy_Regular(ptr noundef %0) #1 {
  %2 = alloca ptr, align 8
  store ptr %0, ptr %2, align 8, !tbaa !8
  %3 = load ptr, ptr %2, align 8, !tbaa !8
  %4 = ptrtoint ptr %3 to i64
  %5 = and i64 %4, -2
  %6 = inttoptr i64 %5 to ptr
  ret ptr %6
}

; Function Attrs: inlinehint nounwind uwtable
define internal ptr @Ivy_ObjFanin1(ptr noundef %0) #1 {
  %2 = alloca ptr, align 8
  store ptr %0, ptr %2, align 8, !tbaa !8
  %3 = load ptr, ptr %2, align 8, !tbaa !8
  %4 = getelementptr inbounds nuw %struct.Ivy_Obj_t_, ptr %3, i32 0, i32 5
  %5 = load ptr, ptr %4, align 8, !tbaa !20
  %6 = call ptr @Ivy_Regular(ptr noundef %5)
  ret ptr %6
}

; Function Attrs: inlinehint nounwind uwtable
define internal void @Ivy_ObjRefsInc(ptr noundef %0) #1 {
  %2 = alloca ptr, align 8
  store ptr %0, ptr %2, align 8, !tbaa !8
  %3 = load ptr, ptr %2, align 8, !tbaa !8
  %4 = getelementptr inbounds nuw %struct.Ivy_Obj_t_, ptr %3, i32 0, i32 3
  %5 = load i32, ptr %4, align 4, !tbaa !42
  %6 = add nsw i32 %5, 1
  store i32 %6, ptr %4, align 4, !tbaa !42
  ret void
}

; Function Attrs: inlinehint nounwind uwtable
define internal ptr @Ivy_ObjFanin0(ptr noundef %0) #1 {
  %2 = alloca ptr, align 8
  store ptr %0, ptr %2, align 8, !tbaa !8
  %3 = load ptr, ptr %2, align 8, !tbaa !8
  %4 = getelementptr inbounds nuw %struct.Ivy_Obj_t_, ptr %3, i32 0, i32 4
  %5 = load ptr, ptr %4, align 8, !tbaa !19
  %6 = call ptr @Ivy_Regular(ptr noundef %5)
  ret ptr %6
}

; Function Attrs: nounwind uwtable
define void @Ivy_ObjConnect(ptr noundef %0, ptr noundef %1, ptr noundef %2, ptr noundef %3) #0 {
  %5 = alloca ptr, align 8
  %6 = alloca ptr, align 8
  %7 = alloca ptr, align 8
  %8 = alloca ptr, align 8
  store ptr %0, ptr %5, align 8, !tbaa !3
  store ptr %1, ptr %6, align 8, !tbaa !8
  store ptr %2, ptr %7, align 8, !tbaa !8
  store ptr %3, ptr %8, align 8, !tbaa !8
  %9 = load ptr, ptr %7, align 8, !tbaa !8
  %10 = load ptr, ptr %6, align 8, !tbaa !8
  %11 = getelementptr inbounds nuw %struct.Ivy_Obj_t_, ptr %10, i32 0, i32 4
  store ptr %9, ptr %11, align 8, !tbaa !19
  %12 = load ptr, ptr %8, align 8, !tbaa !8
  %13 = load ptr, ptr %6, align 8, !tbaa !8
  %14 = getelementptr inbounds nuw %struct.Ivy_Obj_t_, ptr %13, i32 0, i32 5
  store ptr %12, ptr %14, align 8, !tbaa !20
  %15 = load ptr, ptr %6, align 8, !tbaa !8
  %16 = call ptr @Ivy_ObjFanin0(ptr noundef %15)
  %17 = icmp ne ptr %16, null
  br i1 %17, label %18, label %31

18:                                               ; preds = %4
  %19 = load ptr, ptr %6, align 8, !tbaa !8
  %20 = call ptr @Ivy_ObjFanin0(ptr noundef %19)
  call void @Ivy_ObjRefsInc(ptr noundef %20)
  %21 = load ptr, ptr %5, align 8, !tbaa !3
  %22 = getelementptr inbounds nuw %struct.Ivy_Man_t_, ptr %21, i32 0, i32 15
  %23 = load i32, ptr %22, align 8, !tbaa !34
  %24 = icmp ne i32 %23, 0
  br i1 %24, label %25, label %30

25:                                               ; preds = %18
  %26 = load ptr, ptr %5, align 8, !tbaa !3
  %27 = load ptr, ptr %6, align 8, !tbaa !8
  %28 = call ptr @Ivy_ObjFanin0(ptr noundef %27)
  %29 = load ptr, ptr %6, align 8, !tbaa !8
  call void @Ivy_ObjAddFanout(ptr noundef %26, ptr noundef %28, ptr noundef %29)
  br label %30

30:                                               ; preds = %25, %18
  br label %31

31:                                               ; preds = %30, %4
  %32 = load ptr, ptr %6, align 8, !tbaa !8
  %33 = call ptr @Ivy_ObjFanin1(ptr noundef %32)
  %34 = icmp ne ptr %33, null
  br i1 %34, label %35, label %48

35:                                               ; preds = %31
  %36 = load ptr, ptr %6, align 8, !tbaa !8
  %37 = call ptr @Ivy_ObjFanin1(ptr noundef %36)
  call void @Ivy_ObjRefsInc(ptr noundef %37)
  %38 = load ptr, ptr %5, align 8, !tbaa !3
  %39 = getelementptr inbounds nuw %struct.Ivy_Man_t_, ptr %38, i32 0, i32 15
  %40 = load i32, ptr %39, align 8, !tbaa !34
  %41 = icmp ne i32 %40, 0
  br i1 %41, label %42, label %47

42:                                               ; preds = %35
  %43 = load ptr, ptr %5, align 8, !tbaa !3
  %44 = load ptr, ptr %6, align 8, !tbaa !8
  %45 = call ptr @Ivy_ObjFanin1(ptr noundef %44)
  %46 = load ptr, ptr %6, align 8, !tbaa !8
  call void @Ivy_ObjAddFanout(ptr noundef %43, ptr noundef %45, ptr noundef %46)
  br label %47

47:                                               ; preds = %42, %35
  br label %48

48:                                               ; preds = %47, %31
  %49 = load ptr, ptr %5, align 8, !tbaa !3
  %50 = load ptr, ptr %6, align 8, !tbaa !8
  call void @Ivy_TableInsert(ptr noundef %49, ptr noundef %50)
  ret void
}