; Function Attrs: nounwind uwtable
define void @Ivy_ObjConnect(ptr noundef %0, ptr noundef initializes((16, 32)) %1, ptr noundef %2, ptr noundef %3) local_unnamed_addr #0 {
  %5 = getelementptr inbounds nuw i8, ptr %1, i64 16
  store ptr %2, ptr %5, align 8, !tbaa !24
  %6 = getelementptr inbounds nuw i8, ptr %1, i64 24
  store ptr %3, ptr %6, align 8, !tbaa !25
  %7 = ptrtoint ptr %2 to i64
  %8 = and i64 %7, -2
  %9 = inttoptr i64 %8 to ptr
  %.not = icmp eq i64 %8, 0
  br i1 %.not, label %17, label %10

10:                                               ; preds = %4
  %11 = getelementptr inbounds nuw i8, ptr %9, i64 12
  %12 = load i32, ptr %11, align 4, !tbaa !26
  %13 = add nsw i32 %12, 1
  store i32 %13, ptr %11, align 4, !tbaa !26
  %14 = getelementptr inbounds nuw i8, ptr %0, i64 192
  %15 = load i32, ptr %14, align 8, !tbaa !27
  %.not18 = icmp eq i32 %15, 0
  br i1 %.not18, label %17, label %16

16:                                               ; preds = %10
  tail call void @Ivy_ObjAddFanout(ptr noundef nonnull %0, ptr noundef nonnull %9, ptr noundef nonnull %1) #7
  %.val23.pre = load ptr, ptr %6, align 8, !tbaa !25
  br label %17

17:                                               ; preds = %10, %16, %4
  %.val23 = phi ptr [ %3, %10 ], [ %.val23.pre, %16 ], [ %3, %4 ]
  %18 = ptrtoint ptr %.val23 to i64
  %19 = and i64 %18, -2
  %20 = inttoptr i64 %19 to ptr
  %.not19 = icmp eq i64 %19, 0
  br i1 %.not19, label %28, label %21

21:                                               ; preds = %17
  %22 = getelementptr inbounds nuw i8, ptr %20, i64 12
  %23 = load i32, ptr %22, align 4, !tbaa !26
  %24 = add nsw i32 %23, 1
  store i32 %24, ptr %22, align 4, !tbaa !26
  %25 = getelementptr inbounds nuw i8, ptr %0, i64 192
  %26 = load i32, ptr %25, align 8, !tbaa !27
  %.not20 = icmp eq i32 %26, 0
  br i1 %.not20, label %28, label %27

27:                                               ; preds = %21
  tail call void @Ivy_ObjAddFanout(ptr noundef nonnull %0, ptr noundef nonnull %20, ptr noundef nonnull %1) #7
  br label %28

28:                                               ; preds = %21, %27, %17
  tail call void @Ivy_TableInsert(ptr noundef %0, ptr noundef nonnull %1) #7
  ret void
}